; Function Attrs: mustprogress nounwind uwtable
define noundef zeroext i1 @_ZN3gmx20equalCaseInsensitiveERKNSt7__cxx1112basic_stringIcSt11char_traitsIcESaIcEEES7_m(ptr noundef nonnull align 8 dereferenceable(32) %0, ptr noundef nonnull align 8 dereferenceable(32) %1, i64 noundef %2) local_unnamed_addr #3 {
  %4 = tail call noundef i64 @_ZNKSt7__cxx1112basic_stringIcSt11char_traitsIcESaIcEE6lengthEv(ptr noundef nonnull align 8 dereferenceable(32) %0) #22
  %5 = icmp ult i64 %4, %2
  br i1 %5, label %6, label %11

6:                                                ; preds = %3
  %7 = tail call noundef i64 @_ZNKSt7__cxx1112basic_stringIcSt11char_traitsIcESaIcEE6lengthEv(ptr noundef nonnull align 8 dereferenceable(32) %0) #22
  %8 = tail call noundef i64 @_ZNKSt7__cxx1112basic_stringIcSt11char_traitsIcESaIcEE6lengthEv(ptr noundef nonnull align 8 dereferenceable(32) %1) #22
  %.not = icmp eq i64 %7, %8
  br i1 %.not, label %9, label %"_ZSt5equalIN9__gnu_cxx17__normal_iteratorIPKcNSt7__cxx1112basic_stringIcSt11char_traitsIcESaIcEEEEESA_ZN3gmx20equalCaseInsensitiveERKS9_SD_mE3$_0EbT_SF_T0_T1_.exit"

9:                                                ; preds = %6
  %10 = tail call ptr @_ZNKSt7__cxx1112basic_stringIcSt11char_traitsIcESaIcEE3endEv(ptr noundef nonnull align 8 dereferenceable(32) %0) #22
  br label %17

11:                                               ; preds = %3
  %12 = tail call noundef i64 @_ZNKSt7__cxx1112basic_stringIcSt11char_traitsIcESaIcEE6lengthEv(ptr noundef nonnull align 8 dereferenceable(32) %1) #22
  %13 = icmp ult i64 %12, %2
  br i1 %13, label %"_ZSt5equalIN9__gnu_cxx17__normal_iteratorIPKcNSt7__cxx1112basic_stringIcSt11char_traitsIcESaIcEEEEESA_ZN3gmx20equalCaseInsensitiveERKS9_SD_mE3$_0EbT_SF_T0_T1_.exit", label %14

14:                                               ; preds = %11
  %15 = tail call ptr @_ZNKSt7__cxx1112basic_stringIcSt11char_traitsIcESaIcEE5beginEv(ptr noundef nonnull align 8 dereferenceable(32) %0) #22
  %16 = getelementptr inbounds i8, ptr %15, i64 %2
  br label %17

17:                                               ; preds = %14, %9
  %storemerge = phi ptr [ %16, %14 ], [ %10, %9 ]
  %18 = tail call ptr @_ZNKSt7__cxx1112basic_stringIcSt11char_traitsIcESaIcEE5beginEv(ptr noundef nonnull align 8 dereferenceable(32) %0) #22
  %19 = tail call ptr @_ZNKSt7__cxx1112basic_stringIcSt11char_traitsIcESaIcEE5beginEv(ptr noundef nonnull align 8 dereferenceable(32) %1) #22
  %.not7.i = icmp eq ptr %18, %storemerge
  br i1 %.not7.i, label %"_ZSt5equalIN9__gnu_cxx17__normal_iteratorIPKcNSt7__cxx1112basic_stringIcSt11char_traitsIcESaIcEEEEESA_ZN3gmx20equalCaseInsensitiveERKS9_SD_mE3$_0EbT_SF_T0_T1_.exit", label %.lr.ph.i

.lr.ph.i:                                         ; preds = %17, %.lr.ph.i
  %.sroa.0.09.i = phi ptr [ %26, %.lr.ph.i ], [ %19, %17 ]
  %.sroa.04.08.i = phi ptr [ %25, %.lr.ph.i ], [ %18, %17 ]
  %.val.i = load i8, ptr %.sroa.04.08.i, align 1
  %.val1.i = load i8, ptr %.sroa.0.09.i, align 1
  %20 = sext i8 %.val.i to i32
  %21 = tail call i32 @tolower(i32 noundef %20) #21
  %22 = sext i8 %.val1.i to i32
  %23 = tail call i32 @tolower(i32 noundef %22) #21
  %24 = icmp eq i32 %21, %23
  %25 = getelementptr inbounds i8, ptr %.sroa.04.08.i, i64 1
  %26 = getelementptr inbounds i8, ptr %.sroa.0.09.i, i64 1
  %.not.i = icmp ne ptr %25, %storemerge
  %or.cond.not = select i1 %24, i1 %.not.i, i1 false
  br i1 %or.cond.not, label %.lr.ph.i, label %"_ZSt5equalIN9__gnu_cxx17__normal_iteratorIPKcNSt7__cxx1112basic_stringIcSt11char_traitsIcESaIcEEEEESA_ZN3gmx20equalCaseInsensitiveERKS9_SD_mE3$_0EbT_SF_T0_T1_.exit", !llvm.loop !21

"_ZSt5equalIN9__gnu_cxx17__normal_iteratorIPKcNSt7__cxx1112basic_stringIcSt11char_traitsIcESaIcEEEEESA_ZN3gmx20equalCaseInsensitiveERKS9_SD_mE3$_0EbT_SF_T0_T1_.exit": ; preds = %.lr.ph.i, %17, %11, %6
  %.0 = phi i1 [ false, %6 ], [ false, %11 ], [ true, %17 ], [ %24, %.lr.ph.i ]
  ret i1 %.0
}